; Function Attrs: inlinehint mustprogress nofree norecurse nosync nounwind willreturn memory(read, argmem: readwrite, inaccessiblemem: none) uwtable
define internal fastcc i32 @get_bits_long(ptr noundef captures(none) %0, i32 noundef %1) unnamed_addr #6 {
  %.not = icmp eq i32 %1, 0
  br i1 %.not, label %40, label %3

3:                                                ; preds = %2
  %4 = icmp slt i32 %1, 26
  %5 = getelementptr inbounds nuw i8, ptr %0, i64 16
  %6 = load i32, ptr %5, align 8, !tbaa !99
  %7 = getelementptr inbounds nuw i8, ptr %0, i64 24
  %8 = load i32, ptr %7, align 8, !tbaa !97
  %9 = load ptr, ptr %0, align 8, !tbaa !95
  %10 = lshr i32 %6, 3
  %11 = zext nneg i32 %10 to i64
  %12 = getelementptr inbounds nuw i8, ptr %9, i64 %11
  %13 = load i32, ptr %12, align 1, !tbaa !43
  %14 = and i32 %6, 7
  %15 = lshr i32 %13, %14
  br i1 %4, label %16, label %22

16:                                               ; preds = %3
  %17 = sub i32 32, %1
  %18 = lshr i32 -1, %17
  %19 = and i32 %15, %18
  %20 = add i32 %6, %1
  %21 = tail call i32 @llvm.umin.i32(i32 %8, i32 %20)
  store i32 %21, ptr %5, align 8, !tbaa !99
  br label %40

22:                                               ; preds = %3
  %23 = and i32 %15, 65535
  %24 = add i32 %6, 16
  %25 = tail call i32 @llvm.umin.i32(i32 %8, i32 %24)
  store i32 %25, ptr %5, align 8, !tbaa !99
  %26 = add nsw i32 %1, -16
  %27 = lshr i32 %25, 3
  %28 = zext nneg i32 %27 to i64
  %29 = getelementptr inbounds nuw i8, ptr %9, i64 %28
  %30 = load i32, ptr %29, align 1, !tbaa !43
  %31 = and i32 %25, 7
  %32 = lshr i32 %30, %31
  %33 = sub nsw i32 48, %1
  %34 = lshr i32 -1, %33
  %35 = and i32 %32, %34
  %36 = add i32 %26, %25
  %37 = tail call i32 @llvm.umin.i32(i32 %8, i32 %36)
  store i32 %37, ptr %5, align 8, !tbaa !99
  %38 = shl i32 %35, 16
  %39 = or disjoint i32 %38, %23
  br label %40

40:                                               ; preds = %2, %22, %16
  %.0 = phi i32 [ %19, %16 ], [ %39, %22 ], [ 0, %2 ]
  ret i32 %.0
}